target datalayout = "e-m:e-p270:32:32-p271:32:32-p272:64:64-i64:64-i128:128-f80:128-n8:16:32:64-S128"
target triple = "x86_64-pc-linux-gnu"

%"struct.std::array" = type { [3 x float] }

; Function Attrs: mustprogress nounwind uwtable
define linkonce_odr hidden noundef nonnull align 4 dereferenceable(4) ptr @_ZNSt14__array_traitsIfLm3EE6_S_refERA3_Kfm(ptr noundef nonnull align 4 dereferenceable(12) %0, i64 noundef %1) #4 comdat align 2 {
  %3 = alloca ptr, align 8
  %4 = alloca i64, align 8
  store ptr %0, ptr %3, align 8, !tbaa !61
  store i64 %1, ptr %4, align 8, !tbaa !45
  %5 = load ptr, ptr %3, align 8, !tbaa !61
  %6 = load i64, ptr %4, align 8, !tbaa !45
  %7 = getelementptr inbounds nuw [3 x float], ptr %5, i64 0, i64 %6
  ret ptr %7
}

; Function Attrs: mustprogress nounwind uwtable
define linkonce_odr hidden noundef nonnull align 4 dereferenceable(4) ptr @_ZNKSt5arrayIfLm3EEixEm(ptr noundef nonnull align 4 dereferenceable(12) %0, i64 noundef %1) #4 comdat align 2 {
  %3 = alloca ptr, align 8
  %4 = alloca i64, align 8
  store ptr %0, ptr %3, align 8, !tbaa !82
  store i64 %1, ptr %4, align 8, !tbaa !45
  %5 = load ptr, ptr %3, align 8
  %6 = getelementptr inbounds nuw %"struct.std::array", ptr %5, i32 0, i32 0
  %7 = load i64, ptr %4, align 8, !tbaa !45
  %8 = call noundef nonnull align 4 dereferenceable(4) ptr @_ZNSt14__array_traitsIfLm3EE6_S_refERA3_Kfm(ptr noundef nonnull align 4 dereferenceable(12) %6, i64 noundef %7) #3
  ret ptr %8
}

; Function Attrs: mustprogress uwtable
define hidden void @_ZN19OpenColorIO_v2_5dev13GpuShaderText13declareFloat3ERKNSt7__cxx1112basic_stringIcSt11char_traitsIcESaIcEEERKSt5arrayIfLm3EE(ptr noundef nonnull align 8 dereferenceable(764) %0, ptr noundef nonnull align 8 dereferenceable(32) %1, ptr noundef nonnull align 4 dereferenceable(12) %2) #5 align 2 {
  %4 = alloca ptr, align 8
  %5 = alloca ptr, align 8
  %6 = alloca ptr, align 8
  store ptr %0, ptr %4, align 8, !tbaa !8
  store ptr %1, ptr %5, align 8, !tbaa !35
  store ptr %2, ptr %6, align 8, !tbaa !82
  %7 = load ptr, ptr %4, align 8
  %8 = load ptr, ptr %5, align 8, !tbaa !35
  %9 = load ptr, ptr %6, align 8, !tbaa !82
  %10 = call noundef nonnull align 4 dereferenceable(4) ptr @_ZNKSt5arrayIfLm3EEixEm(ptr noundef nonnull align 4 dereferenceable(12) %9, i64 noundef 0) #3
  %11 = load float, ptr %10, align 4, !tbaa !32
  %12 = load ptr, ptr %6, align 8, !tbaa !82
  %13 = call noundef nonnull align 4 dereferenceable(4) ptr @_ZNKSt5arrayIfLm3EEixEm(ptr noundef nonnull align 4 dereferenceable(12) %12, i64 noundef 1) #3
  %14 = load float, ptr %13, align 4, !tbaa !32
  %15 = load ptr, ptr %6, align 8, !tbaa !82
  %16 = call noundef nonnull align 4 dereferenceable(4) ptr @_ZNKSt5arrayIfLm3EEixEm(ptr noundef nonnull align 4 dereferenceable(12) %15, i64 noundef 2) #3
  %17 = load float, ptr %16, align 4, !tbaa !32
  call void @_ZN19OpenColorIO_v2_5dev13GpuShaderText13declareFloat3ERKNSt7__cxx1112basic_stringIcSt11char_traitsIcESaIcEEEfff(ptr noundef nonnull align 8 dereferenceable(764) %7, ptr noundef nonnull align 8 dereferenceable(32) %8, float noundef %11, float noundef %14, float noundef %17)
  ret void
}