; Function Attrs: mustprogress uwtable
define hidden void @_ZN19OpenColorIO_v2_5dev13GpuShaderText13declareFloat3ERKNSt7__cxx1112basic_stringIcSt11char_traitsIcESaIcEEERKSt5arrayIfLm3EE(ptr noundef nonnull align 8 dereferenceable(764) %0, ptr noundef nonnull readonly align 8 captures(none) dereferenceable(32) %1, ptr noundef nonnull readonly align 4 captures(none) dereferenceable(12) %2) local_unnamed_addr #5 align 2 {
  %4 = load float, ptr %2, align 4, !tbaa !196
  %5 = getelementptr inbounds nuw i8, ptr %2, i64 4
  %6 = load float, ptr %5, align 4, !tbaa !196
  %7 = getelementptr inbounds nuw i8, ptr %2, i64 8
  %8 = load float, ptr %7, align 4, !tbaa !196
  tail call void @_ZN19OpenColorIO_v2_5dev13GpuShaderText13declareFloat3ERKNSt7__cxx1112basic_stringIcSt11char_traitsIcESaIcEEEfff(ptr noundef nonnull align 8 dereferenceable(764) %0, ptr noundef nonnull align 8 dereferenceable(32) %1, float noundef %4, float noundef %6, float noundef %8)
  ret void
}